target datalayout = "e-m:e-p270:32:32-p271:32:32-p272:64:64-i64:64-i128:128-f80:128-n8:16:32:64-S128"
target triple = "x86_64-pc-linux-gnu"

%"class.std::ios_base::Init" = type { i8 }
%"class.Ipopt::RestoPenaltyConvergenceCheck" = type { %"class.Ipopt::RestoConvergenceCheck", ptr }
%"class.Ipopt::RestoConvergenceCheck" = type { %"class.Ipopt::OptimalityErrorConvergenceCheck.base", double, i32, i32, double, i8, i32 }
%"class.Ipopt::OptimalityErrorConvergenceCheck.base" = type <{ %"class.Ipopt::ConvergenceCheck.base", [3 x i8], i32, double, double, double, i32, [4 x i8], double, double, double, double, double, double, double, double, double, i32, [4 x i8], double, double, i32 }>
%"class.Ipopt::ConvergenceCheck.base" = type { %"class.Ipopt::AlgorithmStrategyObject.base" }
%"class.Ipopt::AlgorithmStrategyObject.base" = type <{ %"class.Ipopt::ReferencedObject.base", [4 x i8], %"class.Ipopt::SmartPtr", %"class.Ipopt::SmartPtr.0", %"class.Ipopt::SmartPtr.1", %"class.Ipopt::SmartPtr.2", i8 }>
%"class.Ipopt::ReferencedObject.base" = type <{ ptr, i32 }>
%"class.Ipopt::SmartPtr" = type { ptr }
%"class.Ipopt::SmartPtr.0" = type { ptr }
%"class.Ipopt::SmartPtr.1" = type { ptr }
%"class.Ipopt::SmartPtr.2" = type { ptr }
%"class.Ipopt::AlgorithmStrategyObject" = type <{ %"class.Ipopt::ReferencedObject.base", [4 x i8], %"class.Ipopt::SmartPtr", %"class.Ipopt::SmartPtr.0", %"class.Ipopt::SmartPtr.1", %"class.Ipopt::SmartPtr.2", i8, [7 x i8] }>

$_ZNK5Ipopt23AlgorithmStrategyObject5JnlstEv = comdat any

$_ZNK5Ipopt8SmartPtrIKNS_10JournalistEEdeEv = comdat any

$_ZTSN5Ipopt22BacktrackingLSAcceptorE = comdat any

$_ZTSN5Ipopt23AlgorithmStrategyObjectE = comdat any

$_ZTSN5Ipopt16ReferencedObjectE = comdat any

$_ZTIN5Ipopt16ReferencedObjectE = comdat any

$_ZTIN5Ipopt23AlgorithmStrategyObjectE = comdat any

$_ZTIN5Ipopt22BacktrackingLSAcceptorE = comdat any

@_ZStL8__ioinit = internal global %"class.std::ios_base::Init" zeroinitializer, align 1
@__dso_handle = external hidden global i8
@_ZTVN5Ipopt28RestoPenaltyConvergenceCheckE = unnamed_addr constant { [9 x ptr] } { [9 x ptr] [ptr null, ptr @_ZTIN5Ipopt28RestoPenaltyConvergenceCheckE, ptr @_ZN5Ipopt28RestoPenaltyConvergenceCheckD1Ev, ptr @_ZN5Ipopt28RestoPenaltyConvergenceCheckD0Ev, ptr @_ZN5Ipopt28RestoPenaltyConvergenceCheck14InitializeImplERKNS_11OptionsListERKNSt7__cxx1112basic_stringIcSt11char_traitsIcESaIcEEE, ptr @_ZN5Ipopt21RestoConvergenceCheck16CheckConvergenceEb, ptr @_ZN5Ipopt31OptimalityErrorConvergenceCheck19CurrentIsAcceptableEv, ptr @_ZN5Ipopt28RestoPenaltyConvergenceCheck17SetOrigLSAcceptorERKNS_22BacktrackingLSAcceptorE, ptr @_ZN5Ipopt28RestoPenaltyConvergenceCheck16TestOrigProgressEdd] }, align 8
@_ZTVN10__cxxabiv120__si_class_type_infoE = external global [0 x ptr]
@_ZTSN5Ipopt22BacktrackingLSAcceptorE = linkonce_odr constant [33 x i8] c"N5Ipopt22BacktrackingLSAcceptorE\00", comdat, align 1
@_ZTSN5Ipopt23AlgorithmStrategyObjectE = linkonce_odr constant [34 x i8] c"N5Ipopt23AlgorithmStrategyObjectE\00", comdat, align 1
@_ZTVN10__cxxabiv117__class_type_infoE = external global [0 x ptr]
@_ZTSN5Ipopt16ReferencedObjectE = linkonce_odr constant [27 x i8] c"N5Ipopt16ReferencedObjectE\00", comdat, align 1
@_ZTIN5Ipopt16ReferencedObjectE = linkonce_odr constant { ptr, ptr } { ptr getelementptr inbounds (ptr, ptr @_ZTVN10__cxxabiv117__class_type_infoE, i64 2), ptr @_ZTSN5Ipopt16ReferencedObjectE }, comdat, align 8
@_ZTIN5Ipopt23AlgorithmStrategyObjectE = linkonce_odr constant { ptr, ptr, ptr } { ptr getelementptr inbounds (ptr, ptr @_ZTVN10__cxxabiv120__si_class_type_infoE, i64 2), ptr @_ZTSN5Ipopt23AlgorithmStrategyObjectE, ptr @_ZTIN5Ipopt16ReferencedObjectE }, comdat, align 8
@_ZTIN5Ipopt22BacktrackingLSAcceptorE = linkonce_odr constant { ptr, ptr, ptr } { ptr getelementptr inbounds (ptr, ptr @_ZTVN10__cxxabiv120__si_class_type_infoE, i64 2), ptr @_ZTSN5Ipopt22BacktrackingLSAcceptorE, ptr @_ZTIN5Ipopt23AlgorithmStrategyObjectE }, comdat, align 8
@_ZTIN5Ipopt17PenaltyLSAcceptorE = external constant ptr
@.str = private unnamed_addr constant [56 x i8] c"Point is not acceptable to the original current point.\0A\00", align 1
@.str.1 = private unnamed_addr constant [122 x i8] c"Restoration found a point that provides sufficient reduction in theta and is acceptable to the current penalty function.\0A\00", align 1
@_ZTSN5Ipopt28RestoPenaltyConvergenceCheckE = constant [39 x i8] c"N5Ipopt28RestoPenaltyConvergenceCheckE\00", align 1
@_ZTIN5Ipopt21RestoConvergenceCheckE = external constant ptr
@_ZTIN5Ipopt28RestoPenaltyConvergenceCheckE = constant { ptr, ptr, ptr } { ptr getelementptr inbounds (ptr, ptr @_ZTVN10__cxxabiv120__si_class_type_infoE, i64 2), ptr @_ZTSN5Ipopt28RestoPenaltyConvergenceCheckE, ptr @_ZTIN5Ipopt21RestoConvergenceCheckE }, align 8
@llvm.global_ctors = appending global [1 x { i32, ptr, ptr }] [{ i32, ptr, ptr } { i32 65535, ptr @_GLOBAL__sub_I_IpRestoPenaltyConvCheck.cpp, ptr null }]

@_ZN5Ipopt28RestoPenaltyConvergenceCheckC1Ev = unnamed_addr alias void (ptr), ptr @_ZN5Ipopt28RestoPenaltyConvergenceCheckC2Ev
@_ZN5Ipopt28RestoPenaltyConvergenceCheckD1Ev = unnamed_addr alias void (ptr), ptr @_ZN5Ipopt28RestoPenaltyConvergenceCheckD2Ev

; Function Attrs: uwtable
define internal void @__cxx_global_var_init() #0 section ".text.startup" {
  call void @_ZNSt8ios_base4InitC1Ev(ptr noundef nonnull align 1 dereferenceable(1) @_ZStL8__ioinit)
  %1 = call i32 @__cxa_atexit(ptr @_ZNSt8ios_base4InitD1Ev, ptr @_ZStL8__ioinit, ptr @__dso_handle) #3
  ret void
}

declare void @_ZNSt8ios_base4InitC1Ev(ptr noundef nonnull align 1 dereferenceable(1)) unnamed_addr #1

; Function Attrs: nounwind
declare void @_ZNSt8ios_base4InitD1Ev(ptr noundef nonnull align 1 dereferenceable(1)) unnamed_addr #2

; Function Attrs: nounwind
declare i32 @__cxa_atexit(ptr, ptr, ptr) #3

; Function Attrs: mustprogress uwtable
define void @_ZN5Ipopt28RestoPenaltyConvergenceCheckC2Ev(ptr noundef nonnull align 8 dereferenceable(232) %0) unnamed_addr #4 align 2 {
  %2 = alloca ptr, align 8
  store ptr %0, ptr %2, align 8
  %3 = load ptr, ptr %2, align 8
  call void @_ZN5Ipopt21RestoConvergenceCheckC2Ev(ptr noundef nonnull align 8 dereferenceable(224) %3)
  store ptr getelementptr inbounds ({ [9 x ptr] }, ptr @_ZTVN5Ipopt28RestoPenaltyConvergenceCheckE, i32 0, i32 0, i32 2), ptr %3, align 8
  %4 = getelementptr inbounds %"class.Ipopt::RestoPenaltyConvergenceCheck", ptr %3, i32 0, i32 1
  store ptr null, ptr %4, align 8
  ret void
}

declare void @_ZN5Ipopt21RestoConvergenceCheckC2Ev(ptr noundef nonnull align 8 dereferenceable(224)) unnamed_addr #1

; Function Attrs: mustprogress nounwind uwtable
define void @_ZN5Ipopt28RestoPenaltyConvergenceCheckD2Ev(ptr noundef nonnull align 8 dereferenceable(232) %0) unnamed_addr #5 align 2 {
  %2 = alloca ptr, align 8
  store ptr %0, ptr %2, align 8
  %3 = load ptr, ptr %2, align 8
  store ptr getelementptr inbounds ({ [9 x ptr] }, ptr @_ZTVN5Ipopt28RestoPenaltyConvergenceCheckE, i32 0, i32 0, i32 2), ptr %3, align 8
  call void @_ZN5Ipopt21RestoConvergenceCheckD2Ev(ptr noundef nonnull align 8 dereferenceable(224) %3) #3
  ret void
}

; Function Attrs: nounwind
declare void @_ZN5Ipopt21RestoConvergenceCheckD2Ev(ptr noundef nonnull align 8 dereferenceable(224)) unnamed_addr #2

; Function Attrs: mustprogress nounwind uwtable
define void @_ZN5Ipopt28RestoPenaltyConvergenceCheckD0Ev(ptr noundef nonnull align 8 dereferenceable(232) %0) unnamed_addr #5 align 2 {
  %2 = alloca ptr, align 8
  store ptr %0, ptr %2, align 8
  %3 = load ptr, ptr %2, align 8
  call void @_ZN5Ipopt28RestoPenaltyConvergenceCheckD1Ev(ptr noundef nonnull align 8 dereferenceable(232) %3) #3
  call void @_ZdlPv(ptr noundef %3) #8
  ret void
}

; Function Attrs: nobuiltin nounwind
declare void @_ZdlPv(ptr noundef) #6

; Function Attrs: mustprogress nounwind uwtable
define void @_ZN5Ipopt28RestoPenaltyConvergenceCheck17SetOrigLSAcceptorERKNS_22BacktrackingLSAcceptorE(ptr noundef nonnull align 8 dereferenceable(232) %0, ptr noundef nonnull align 8 dereferenceable(49) %1) unnamed_addr #5 align 2 {
  %3 = alloca ptr, align 8
  %4 = alloca ptr, align 8
  store ptr %0, ptr %3, align 8
  store ptr %1, ptr %4, align 8
  %5 = load ptr, ptr %3, align 8
  %6 = load ptr, ptr %4, align 8
  %7 = icmp eq ptr %6, null
  br i1 %7, label %10, label %8

8:                                                ; preds = %2
  %9 = call ptr @__dynamic_cast(ptr %6, ptr @_ZTIN5Ipopt22BacktrackingLSAcceptorE, ptr @_ZTIN5Ipopt17PenaltyLSAcceptorE, i64 0) #3
  br label %11

10:                                               ; preds = %2
  br label %11

11:                                               ; preds = %10, %8
  %12 = phi ptr [ %9, %8 ], [ null, %10 ]
  %13 = getelementptr inbounds %"class.Ipopt::RestoPenaltyConvergenceCheck", ptr %5, i32 0, i32 1
  store ptr %12, ptr %13, align 8
  ret void
}

; Function Attrs: nounwind willreturn memory(read)
declare ptr @__dynamic_cast(ptr, ptr, ptr, i64) #7

; Function Attrs: mustprogress nounwind uwtable
define void @_ZN5Ipopt28RestoPenaltyConvergenceCheck15RegisterOptionsENS_8SmartPtrINS_17RegisteredOptionsEEE(ptr noundef %0) #5 align 2 {
  %2 = alloca ptr, align 8
  store ptr %0, ptr %2, align 8
  ret void
}

; Function Attrs: mustprogress uwtable
define noundef zeroext i1 @_ZN5Ipopt28RestoPenaltyConvergenceCheck14InitializeImplERKNS_11OptionsListERKNSt7__cxx1112basic_stringIcSt11char_traitsIcESaIcEEE(ptr noundef nonnull align 8 dereferenceable(232) %0, ptr noundef nonnull align 8 dereferenceable(112) %1, ptr noundef nonnull align 8 dereferenceable(32) %2) unnamed_addr #4 align 2 {
  %4 = alloca ptr, align 8
  %5 = alloca ptr, align 8
  %6 = alloca ptr, align 8
  store ptr %0, ptr %4, align 8
  store ptr %1, ptr %5, align 8
  store ptr %2, ptr %6, align 8
  %7 = load ptr, ptr %4, align 8
  %8 = load ptr, ptr %5, align 8
  %9 = load ptr, ptr %6, align 8
  %10 = call noundef zeroext i1 @_ZN5Ipopt21RestoConvergenceCheck14InitializeImplERKNS_11OptionsListERKNSt7__cxx1112basic_stringIcSt11char_traitsIcESaIcEEE(ptr noundef nonnull align 8 dereferenceable(224) %7, ptr noundef nonnull align 8 dereferenceable(112) %8, ptr noundef nonnull align 8 dereferenceable(32) %9)
  ret i1 %10
}

declare noundef zeroext i1 @_ZN5Ipopt21RestoConvergenceCheck14InitializeImplERKNS_11OptionsListERKNSt7__cxx1112basic_stringIcSt11char_traitsIcESaIcEEE(ptr noundef nonnull align 8 dereferenceable(224), ptr noundef nonnull align 8 dereferenceable(112), ptr noundef nonnull align 8 dereferenceable(32)) unnamed_addr #1

; Function Attrs: mustprogress uwtable
define noundef i32 @_ZN5Ipopt28RestoPenaltyConvergenceCheck16TestOrigProgressEdd(ptr noundef nonnull align 8 dereferenceable(232) %0, double noundef %1, double noundef %2) unnamed_addr #4 align 2 {
  %4 = alloca ptr, align 8
  %5 = alloca double, align 8
  %6 = alloca double, align 8
  %7 = alloca i32, align 4
  store ptr %0, ptr %4, align 8
  store double %1, ptr %5, align 8
  store double %2, ptr %6, align 8
  %8 = load ptr, ptr %4, align 8
  %9 = getelementptr inbounds %"class.Ipopt::RestoPenaltyConvergenceCheck", ptr %8, i32 0, i32 1
  %10 = load ptr, ptr %9, align 8
  %11 = load double, ptr %5, align 8
  %12 = load double, ptr %6, align 8
  %13 = call noundef zeroext i1 @_ZNK5Ipopt17PenaltyLSAcceptor28IsAcceptableToCurrentIterateEddb(ptr noundef nonnull align 8 dereferenceable(224) %10, double noundef %11, double noundef %12, i1 noundef zeroext true)
  br i1 %13, label %19, label %14

14:                                               ; preds = %3
  %15 = call noundef nonnull align 8 dereferenceable(40) ptr @_ZNK5Ipopt23AlgorithmStrategyObject5JnlstEv(ptr noundef nonnull align 8 dereferenceable(49) %8)
  %16 = load ptr, ptr %15, align 8
  %17 = getelementptr inbounds ptr, ptr %16, i64 2
  %18 = load ptr, ptr %17, align 8
  call void (ptr, i32, i32, ptr, ...) %18(ptr noundef nonnull align 8 dereferenceable(40) %15, i32 noundef 6, i32 noundef 2, ptr noundef @.str)
  store i32 0, ptr %7, align 4
  br label %24

19:                                               ; preds = %3
  %20 = call noundef nonnull align 8 dereferenceable(40) ptr @_ZNK5Ipopt23AlgorithmStrategyObject5JnlstEv(ptr noundef nonnull align 8 dereferenceable(49) %8)
  %21 = load ptr, ptr %20, align 8
  %22 = getelementptr inbounds ptr, ptr %21, i64 2
  %23 = load ptr, ptr %22, align 8
  call void (ptr, i32, i32, ptr, ...) %23(ptr noundef nonnull align 8 dereferenceable(40) %20, i32 noundef 6, i32 noundef 2, ptr noundef @.str.1)
  store i32 1, ptr %7, align 4
  br label %24

24:                                               ; preds = %19, %14
  %25 = load i32, ptr %7, align 4
  ret i32 %25
}

declare noundef zeroext i1 @_ZNK5Ipopt17PenaltyLSAcceptor28IsAcceptableToCurrentIterateEddb(ptr noundef nonnull align 8 dereferenceable(224), double noundef, double noundef, i1 noundef zeroext) #1

; Function Attrs: mustprogress uwtable
define linkonce_odr noundef nonnull align 8 dereferenceable(40) ptr @_ZNK5Ipopt23AlgorithmStrategyObject5JnlstEv(ptr noundef nonnull align 8 dereferenceable(49) %0) #4 comdat align 2 {
  %2 = alloca ptr, align 8
  store ptr %0, ptr %2, align 8
  %3 = load ptr, ptr %2, align 8
  %4 = getelementptr inbounds %"class.Ipopt::AlgorithmStrategyObject", ptr %3, i32 0, i32 2
  %5 = call noundef nonnull align 8 dereferenceable(40) ptr @_ZNK5Ipopt8SmartPtrIKNS_10JournalistEEdeEv(ptr noundef nonnull align 8 dereferenceable(8) %4)
  ret ptr %5
}

declare noundef i32 @_ZN5Ipopt21RestoConvergenceCheck16CheckConvergenceEb(ptr noundef nonnull align 8 dereferenceable(224), i1 noundef zeroext) unnamed_addr #1

declare noundef zeroext i1 @_ZN5Ipopt31OptimalityErrorConvergenceCheck19CurrentIsAcceptableEv(ptr noundef nonnull align 8 dereferenceable(188)) unnamed_addr #1

; Function Attrs: mustprogress nounwind uwtable
define linkonce_odr noundef nonnull align 8 dereferenceable(40) ptr @_ZNK5Ipopt8SmartPtrIKNS_10JournalistEEdeEv(ptr noundef nonnull align 8 dereferenceable(8) %0) #5 comdat align 2 {
  %2 = alloca ptr, align 8
  store ptr %0, ptr %2, align 8
  %3 = load ptr, ptr %2, align 8
  %4 = getelementptr inbounds %"class.Ipopt::SmartPtr", ptr %3, i32 0, i32 0
  %5 = load ptr, ptr %4, align 8
  ret ptr %5
}

; Function Attrs: uwtable
define internal void @_GLOBAL__sub_I_IpRestoPenaltyConvCheck.cpp() #0 section ".text.startup" {
  call void @__cxx_global_var_init()
  ret void
}


!llvm.module.flags = !{!0, !1, !2, !3}

!0 = !{i32 1, !"wchar_size", i32 4}
!1 = !{i32 8, !"PIC Level", i32 2}
!2 = !{i32 7, !"uwtable", i32 2}
!3 = !{i32 7, !"frame-pointer", i32 2}
