; ModuleID = 'bench/ipopt/original/IpRestoPenaltyConvCheck.ll'
source_filename = "bench/ipopt/original/IpRestoPenaltyConvCheck.ll"
target datalayout = "e-m:e-p270:32:32-p271:32:32-p272:64:64-i64:64-i128:128-f80:128-n8:16:32:64-S128"
target triple = "x86_64-pc-linux-gnu"

%"class.std::ios_base::Init" = type { i8 }

$_ZTSN5Ipopt22BacktrackingLSAcceptorE = comdat any

$_ZTSN5Ipopt23AlgorithmStrategyObjectE = comdat any

$_ZTSN5Ipopt16ReferencedObjectE = comdat any

$_ZTIN5Ipopt16ReferencedObjectE = comdat any

$_ZTIN5Ipopt23AlgorithmStrategyObjectE = comdat any

$_ZTIN5Ipopt22BacktrackingLSAcceptorE = comdat any

@_ZStL8__ioinit = internal global %"class.std::ios_base::Init" zeroinitializer, align 1
@__dso_handle = external hidden global i8
@_ZTVN5Ipopt28RestoPenaltyConvergenceCheckE = unnamed_addr constant { [9 x ptr] } { [9 x ptr] [ptr null, ptr @_ZTIN5Ipopt28RestoPenaltyConvergenceCheckE, ptr @_ZN5Ipopt28RestoPenaltyConvergenceCheckD1Ev, ptr @_ZN5Ipopt28RestoPenaltyConvergenceCheckD0Ev, ptr @_ZN5Ipopt28RestoPenaltyConvergenceCheck14InitializeImplERKNS_11OptionsListERKNSt7__cxx1112basic_stringIcSt11char_traitsIcESaIcEEE, ptr @_ZN5Ipopt21RestoConvergenceCheck16CheckConvergenceEb, ptr @_ZN5Ipopt31OptimalityErrorConvergenceCheck19CurrentIsAcceptableEv, ptr @_ZN5Ipopt28RestoPenaltyConvergenceCheck17SetOrigLSAcceptorERKNS_22BacktrackingLSAcceptorE, ptr @_ZN5Ipopt28RestoPenaltyConvergenceCheck16TestOrigProgressEdd] }, align 8
@_ZTVN10__cxxabiv120__si_class_type_infoE = external global [0 x ptr]
@_ZTSN5Ipopt22BacktrackingLSAcceptorE = linkonce_odr constant [33 x i8] c"N5Ipopt22BacktrackingLSAcceptorE\00", comdat, align 1
@_ZTSN5Ipopt23AlgorithmStrategyObjectE = linkonce_odr constant [34 x i8] c"N5Ipopt23AlgorithmStrategyObjectE\00", comdat, align 1
@_ZTVN10__cxxabiv117__class_type_infoE = external global [0 x ptr]
@_ZTSN5Ipopt16ReferencedObjectE = linkonce_odr constant [27 x i8] c"N5Ipopt16ReferencedObjectE\00", comdat, align 1
@_ZTIN5Ipopt16ReferencedObjectE = linkonce_odr constant { ptr, ptr } { ptr getelementptr inbounds (ptr, ptr @_ZTVN10__cxxabiv117__class_type_infoE, i64 2), ptr @_ZTSN5Ipopt16ReferencedObjectE }, comdat, align 8
@_ZTIN5Ipopt23AlgorithmStrategyObjectE = linkonce_odr constant { ptr, ptr, ptr } { ptr getelementptr inbounds (ptr, ptr @_ZTVN10__cxxabiv120__si_class_type_infoE, i64 2), ptr @_ZTSN5Ipopt23AlgorithmStrategyObjectE, ptr @_ZTIN5Ipopt16ReferencedObjectE }, comdat, align 8
@_ZTIN5Ipopt22BacktrackingLSAcceptorE = linkonce_odr constant { ptr, ptr, ptr } { ptr getelementptr inbounds (ptr, ptr @_ZTVN10__cxxabiv120__si_class_type_infoE, i64 2), ptr @_ZTSN5Ipopt22BacktrackingLSAcceptorE, ptr @_ZTIN5Ipopt23AlgorithmStrategyObjectE }, comdat, align 8
@_ZTIN5Ipopt17PenaltyLSAcceptorE = external constant ptr
@.str = private unnamed_addr constant [56 x i8] c"Point is not acceptable to the original current point.\0A\00", align 1
@.str.1 = private unnamed_addr constant [122 x i8] c"Restoration found a point that provides sufficient reduction in theta and is acceptable to the current penalty function.\0A\00", align 1
@_ZTSN5Ipopt28RestoPenaltyConvergenceCheckE = constant [39 x i8] c"N5Ipopt28RestoPenaltyConvergenceCheckE\00", align 1
@_ZTIN5Ipopt21RestoConvergenceCheckE = external constant ptr
@_ZTIN5Ipopt28RestoPenaltyConvergenceCheckE = constant { ptr, ptr, ptr } { ptr getelementptr inbounds (ptr, ptr @_ZTVN10__cxxabiv120__si_class_type_infoE, i64 2), ptr @_ZTSN5Ipopt28RestoPenaltyConvergenceCheckE, ptr @_ZTIN5Ipopt21RestoConvergenceCheckE }, align 8
@llvm.global_ctors = appending global [1 x { i32, ptr, ptr }] [{ i32, ptr, ptr } { i32 65535, ptr @_GLOBAL__sub_I_IpRestoPenaltyConvCheck.cpp, ptr null }]

@_ZN5Ipopt28RestoPenaltyConvergenceCheckC1Ev = unnamed_addr alias void (ptr), ptr @_ZN5Ipopt28RestoPenaltyConvergenceCheckC2Ev
@_ZN5Ipopt28RestoPenaltyConvergenceCheckD1Ev = unnamed_addr alias void (ptr), ptr @_ZN5Ipopt28RestoPenaltyConvergenceCheckD2Ev

declare void @_ZNSt8ios_base4InitC1Ev(ptr noundef nonnull align 1 dereferenceable(1)) unnamed_addr #0

; Function Attrs: nounwind
declare void @_ZNSt8ios_base4InitD1Ev(ptr noundef nonnull align 1 dereferenceable(1)) unnamed_addr #1

; Function Attrs: nofree nounwind
declare i32 @__cxa_atexit(ptr, ptr, ptr) local_unnamed_addr #2

; Function Attrs: mustprogress uwtable
define void @_ZN5Ipopt28RestoPenaltyConvergenceCheckC2Ev(ptr noundef nonnull align 8 dereferenceable(232) %0) unnamed_addr #3 align 2 {
  tail call void @_ZN5Ipopt21RestoConvergenceCheckC2Ev(ptr noundef nonnull align 8 dereferenceable(224) %0)
  store ptr getelementptr inbounds ({ [9 x ptr] }, ptr @_ZTVN5Ipopt28RestoPenaltyConvergenceCheckE, i64 0, i32 0, i64 2), ptr %0, align 8
  %2 = getelementptr inbounds i8, ptr %0, i64 224
  store ptr null, ptr %2, align 8
  ret void
}

declare void @_ZN5Ipopt21RestoConvergenceCheckC2Ev(ptr noundef nonnull align 8 dereferenceable(224)) unnamed_addr #0

; Function Attrs: mustprogress nounwind uwtable
define void @_ZN5Ipopt28RestoPenaltyConvergenceCheckD2Ev(ptr noundef nonnull align 8 dereferenceable(232) %0) unnamed_addr #4 align 2 {
  store ptr getelementptr inbounds ({ [9 x ptr] }, ptr @_ZTVN5Ipopt28RestoPenaltyConvergenceCheckE, i64 0, i32 0, i64 2), ptr %0, align 8
  tail call void @_ZN5Ipopt21RestoConvergenceCheckD2Ev(ptr noundef nonnull align 8 dereferenceable(224) %0) #10
  ret void
}

; Function Attrs: nounwind
declare void @_ZN5Ipopt21RestoConvergenceCheckD2Ev(ptr noundef nonnull align 8 dereferenceable(224)) unnamed_addr #1

; Function Attrs: mustprogress nounwind uwtable
define void @_ZN5Ipopt28RestoPenaltyConvergenceCheckD0Ev(ptr noundef nonnull align 8 dereferenceable(232) %0) unnamed_addr #4 align 2 {
  tail call void @_ZN5Ipopt28RestoPenaltyConvergenceCheckD1Ev(ptr noundef nonnull align 8 dereferenceable(232) %0) #10
  tail call void @_ZdlPv(ptr noundef nonnull %0) #11
  ret void
}

; Function Attrs: nobuiltin nounwind
declare void @_ZdlPv(ptr noundef) local_unnamed_addr #5

; Function Attrs: mustprogress nofree nounwind willreturn memory(read, argmem: readwrite) uwtable
define void @_ZN5Ipopt28RestoPenaltyConvergenceCheck17SetOrigLSAcceptorERKNS_22BacktrackingLSAcceptorE(ptr nocapture noundef nonnull writeonly align 8 dereferenceable(232) %0, ptr noundef nonnull align 8 dereferenceable(49) %1) unnamed_addr #6 align 2 {
  %3 = tail call ptr @__dynamic_cast(ptr nonnull %1, ptr nonnull @_ZTIN5Ipopt22BacktrackingLSAcceptorE, ptr nonnull @_ZTIN5Ipopt17PenaltyLSAcceptorE, i64 0) #10
  %4 = getelementptr inbounds i8, ptr %0, i64 224
  store ptr %3, ptr %4, align 8
  ret void
}

; Function Attrs: mustprogress nofree nounwind willreturn memory(read)
declare ptr @__dynamic_cast(ptr, ptr, ptr, i64) local_unnamed_addr #7

; Function Attrs: mustprogress nofree norecurse nosync nounwind willreturn memory(none) uwtable
define void @_ZN5Ipopt28RestoPenaltyConvergenceCheck15RegisterOptionsENS_8SmartPtrINS_17RegisteredOptionsEEE(ptr nocapture noundef readnone %0) local_unnamed_addr #8 align 2 {
  ret void
}

; Function Attrs: mustprogress uwtable
define noundef zeroext i1 @_ZN5Ipopt28RestoPenaltyConvergenceCheck14InitializeImplERKNS_11OptionsListERKNSt7__cxx1112basic_stringIcSt11char_traitsIcESaIcEEE(ptr noundef nonnull align 8 dereferenceable(232) %0, ptr noundef nonnull align 8 dereferenceable(112) %1, ptr noundef nonnull align 8 dereferenceable(32) %2) unnamed_addr #3 align 2 {
  %4 = tail call noundef zeroext i1 @_ZN5Ipopt21RestoConvergenceCheck14InitializeImplERKNS_11OptionsListERKNSt7__cxx1112basic_stringIcSt11char_traitsIcESaIcEEE(ptr noundef nonnull align 8 dereferenceable(224) %0, ptr noundef nonnull align 8 dereferenceable(112) %1, ptr noundef nonnull align 8 dereferenceable(32) %2)
  ret i1 %4
}

declare noundef zeroext i1 @_ZN5Ipopt21RestoConvergenceCheck14InitializeImplERKNS_11OptionsListERKNSt7__cxx1112basic_stringIcSt11char_traitsIcESaIcEEE(ptr noundef nonnull align 8 dereferenceable(224), ptr noundef nonnull align 8 dereferenceable(112), ptr noundef nonnull align 8 dereferenceable(32)) unnamed_addr #0

; Function Attrs: mustprogress uwtable
define noundef i32 @_ZN5Ipopt28RestoPenaltyConvergenceCheck16TestOrigProgressEdd(ptr nocapture noundef nonnull readonly align 8 dereferenceable(232) %0, double noundef %1, double noundef %2) unnamed_addr #3 align 2 {
  %4 = getelementptr inbounds i8, ptr %0, i64 224
  %5 = load ptr, ptr %4, align 8
  %6 = tail call noundef zeroext i1 @_ZNK5Ipopt17PenaltyLSAcceptor28IsAcceptableToCurrentIterateEddb(ptr noundef nonnull align 8 dereferenceable(224) %5, double noundef %1, double noundef %2, i1 noundef zeroext true)
  %7 = getelementptr inbounds i8, ptr %0, i64 16
  %8 = load ptr, ptr %7, align 8
  %9 = load ptr, ptr %8, align 8
  %10 = getelementptr inbounds i8, ptr %9, i64 16
  %11 = load ptr, ptr %10, align 8
  %.str.1..str = select i1 %6, ptr @.str.1, ptr @.str
  %. = zext i1 %6 to i32
  tail call void (ptr, i32, i32, ptr, ...) %11(ptr noundef nonnull align 8 dereferenceable(40) %8, i32 noundef 6, i32 noundef 2, ptr noundef nonnull %.str.1..str)
  ret i32 %.
}

declare noundef zeroext i1 @_ZNK5Ipopt17PenaltyLSAcceptor28IsAcceptableToCurrentIterateEddb(ptr noundef nonnull align 8 dereferenceable(224), double noundef, double noundef, i1 noundef zeroext) local_unnamed_addr #0

declare noundef i32 @_ZN5Ipopt21RestoConvergenceCheck16CheckConvergenceEb(ptr noundef nonnull align 8 dereferenceable(224), i1 noundef zeroext) unnamed_addr #0

declare noundef zeroext i1 @_ZN5Ipopt31OptimalityErrorConvergenceCheck19CurrentIsAcceptableEv(ptr noundef nonnull align 8 dereferenceable(188)) unnamed_addr #0

; Function Attrs: uwtable
define internal void @_GLOBAL__sub_I_IpRestoPenaltyConvCheck.cpp() #9 section ".text.startup" {
  tail call void @_ZNSt8ios_base4InitC1Ev(ptr noundef nonnull align 1 dereferenceable(1) @_ZStL8__ioinit)
  %1 = tail call i32 @__cxa_atexit(ptr nonnull @_ZNSt8ios_base4InitD1Ev, ptr nonnull @_ZStL8__ioinit, ptr nonnull @__dso_handle) #10
  ret void
}


!llvm.module.flags = !{!0, !1, !2, !3}

!0 = !{i32 1, !"wchar_size", i32 4}
!1 = !{i32 8, !"PIC Level", i32 2}
!2 = !{i32 7, !"uwtable", i32 2}
!3 = !{i32 7, !"frame-pointer", i32 2}
